; Function Attrs: nounwind uwtable
define noalias noundef ptr @Amap_CreateRulesFromDsd(ptr noundef %0, ptr noundef readonly captures(none) %1) local_unnamed_addr #0 {
  %3 = getelementptr inbounds nuw i8, ptr %1, i64 6
  %4 = load i16, ptr %3, align 2
  %5 = and i16 %4, -2
  %6 = zext i16 %5 to i32
  %7 = tail call ptr @Amap_CreateRulesFromDsd_rec(ptr noundef %0, ptr noundef %1, i32 noundef %6)
  %8 = icmp eq ptr %7, null
  br i1 %8, label %.critedge, label %9

9:                                                ; preds = %2
  %10 = load i16, ptr %3, align 2
  %11 = and i16 %10, 1
  %.not = icmp eq i16 %11, 0
  br i1 %.not, label %.critedge, label %.preheader

.preheader:                                       ; preds = %9
  %12 = getelementptr i8, ptr %7, i64 4
  %.val = load i32, ptr %12, align 4
  %13 = icmp sgt i32 %.val, 0
  br i1 %13, label %.lr.ph, label %.critedge

.lr.ph:                                           ; preds = %.preheader
  %14 = getelementptr i8, ptr %7, i64 8
  %.val16 = load ptr, ptr %14, align 8
  %wide.trip.count = zext nneg i32 %.val to i64
  br label %15

15:                                               ; preds = %.lr.ph, %15
  %indvars.iv = phi i64 [ 0, %.lr.ph ], [ %indvars.iv.next, %15 ]
  %16 = getelementptr inbounds nuw i32, ptr %.val16, i64 %indvars.iv
  %17 = load i32, ptr %16, align 4
  %18 = xor i32 %17, 1
  store i32 %18, ptr %16, align 4
  %indvars.iv.next = add nuw nsw i64 %indvars.iv, 1
  %exitcond.not = icmp eq i64 %indvars.iv.next, %wide.trip.count
  br i1 %exitcond.not, label %.critedge, label %15, !llvm.loop !21

.critedge:                                        ; preds = %15, %.preheader, %9, %2
  ret ptr %7
}